Certificate:
    Data:
        Version: 1 (0x0)
        Serial Number: 2 (0x2)
        Signature Algorithm: sha256WithRSAEncryption
        Issuer: CN=SGXCACertificate
        Validity
            Not Before: Jan 21 11:49:25 2020 GMT
            Not After : Jan 18 11:49:25 2030 GMT
        Subject: CN=db1cd80abd6d018ed9d67bd2333f4f99f25477866bbf6ea89f4fba7fb508cc5a
        Subject Public Key Info:
            Public Key Algorithm: rsaEncryption
                RSA Public-Key: (2048 bit)
                Modulus:
                    00:cd:0e:cc:63:fd:6c:16:d2:0f:40:1e:2a:db:ef:
                    76:2c:ce:58:81:34:cc:9b:58:da:20:c5:b3:31:2d:
                    83:de:84:cc:23:62:11:27:3c:63:cd:f7:10:7a:9f:
                    f3:fd:87:2c:f3:ac:2a:ac:61:fa:36:7e:e5:c8:89:
                    73:6b:1e:11:15:11:63:7e:22:08:5b:02:ba:da:89:
                    5c:0b:e6:8b:a8:d6:8f:33:af:0e:5a:39:00:f9:f3:
                    c0:38:de:23:10:f8:65:17:2f:ab:17:7d:e1:ee:66:
                    54:cd:e8:d2:bd:a7:23:86:dc:b2:8e:92:27:23:0c:
                    df:c7:42:6c:65:31:ac:c9:68:34:f1:96:1b:12:02:
                    3b:93:bf:9d:d6:26:49:fc:c8:80:92:a9:0f:f1:85:
                    c8:98:da:29:68:a1:51:42:8d:df:18:0c:6d:45:f8:
                    48:b6:af:dd:a2:85:9b:2e:2f:85:0d:74:1d:02:e4:
                    c3:22:af:68:9d:71:6e:71:4e:8a:6d:c5:cc:66:28:
                    4a:8d:13:09:e1:bd:32:aa:d7:bb:d4:f9:aa:ad:67:
                    c4:31:0d:71:62:0d:e3:ee:9c:51:6e:ef:78:18:f2:
                    3c:74:fe:88:f1:57:c3:dd:de:9c:d6:db:4b:2a:61:
                    d5:7a:6c:d2:bd:11:11:51:35:7c:35:6e:5b:4f:f9:
                    52:cd
                Exponent: 65537 (0x10001)
    Signature Algorithm: sha256WithRSAEncryption
         a9:a8:de:18:e4:4c:f8:dc:94:58:fa:1e:78:ca:2c:65:f1:da:
         a7:db:fe:bb:e2:23:01:76:ef:05:39:3f:e4:68:15:9a:d1:7e:
         60:c2:dd:fc:ff:35:ca:98:7f:f4:bd:8c:d5:4c:1f:29:e3:dc:
         7d:89:8a:79:fe:c6:c6:52:1c:99:a1:49:1f:e5:82:66:45:63:
         aa:7c:1c:9c:fa:26:ba:f8:55:38:92:bb:71:7e:8e:a1:cf:00:
         39:65:0a:65:bd:95:db:1e:a8:fe:b2:81:8e:8f:1a:8b:47:83:
         17:64:27:db:f4:c9:56:3e:9b:a9:9d:ef:91:f1:9d:69:0a:94:
         3d:b9:00:d9:97:12:bd:90:a1:ac:ed:7d:c0:74:26:3c:be:87:
         5b:ae:59:a0:c9:7c:8b:a9:06:78:c6:1b:57:10:70:51:1d:84:
         97:2f:00:93:d6:5d:bf:a0:56:50:e1:5c:8d:61:a1:ac:dd:e1:
         cb:ef:57:30:f3:07:c4:ee:ba:c9:fc:77:4e:88:1f:93:53:73:
         0d:9d:93:e9:da:5f:40:41:67:24:a2:6d:4a:e7:42:d7:89:87:
         2d:50:2d:df:ff:46:a4:f4:b5:0c:8a:5d:02:51:84:e8:79:bd:
         14:11:db:2d:5b:8b:91:e9:b7:9e:e7:dc:de:d8:8a:d5:59:69:
         40:8d:25:c6
-----BEGIN CERTIFICATE-----
MIIC2jCCAcICAQIwDQYJKoZIhvcNAQELBQAwGzEZMBcGA1UEAwwQU0dYQ0FDZXJ0
aWZpY2F0ZTAeFw0yMDAxMjExMTQ5MjVaFw0zMDAxMTgxMTQ5MjVaMEsxSTBHBgNV
BAMMQGRiMWNkODBhYmQ2ZDAxOGVkOWQ2N2JkMjMzM2Y0Zjk5ZjI1NDc3ODY2YmJm
NmVhODlmNGZiYTdmYjUwOGNjNWEwggEiMA0GCSqGSIb3DQEBAQUAA4IBDwAwggEK
AoIBAQDNDsxj/WwW0g9AHirb73YszliBNMybWNogxbMxLYPehMwjYhEnPGPN9xB6
n/P9hyzzrCqsYfo2fuXIiXNrHhEVEWN+IghbArraiVwL5ouo1o8zrw5aOQD588A4
3iMQ+GUXL6sXfeHuZlTN6NK9pyOG3LKOkicjDN/HQmxlMazJaDTxlhsSAjuTv53W
Jkn8yICSqQ/xhciY2ilooVFCjd8YDG1F+Ei2r92ihZsuL4UNdB0C5MMir2idcW5x
ToptxcxmKEqNEwnhvTKq17vU+aqtZ8QxDXFiDePunFFu73gY8jx0/ojxV8Pd3pzW
20sqYdV6bNK9ERFRNXw1bltP+VLNAgMBAAEwDQYJKoZIhvcNAQELBQADggEBAKmo
3hjkTPjclFj6HnjKLGXx2qfb/rviIwF27wU5P+RoFZrRfmDC3fz/NcqYf/S9jNVM
Hynj3H2Jinn+xsZSHJmhSR/lgmZFY6p8HJz6Jrr4VTiSu3F+jqHPADllCmW9ldse
qP6ygY6PGotHgxdkJ9v0yVY+m6md75HxnWkKlD25ANmXEr2QoaztfcB0Jjy+h1uu
WaDJfIupBnjGG1cQcFEdhJcvAJPWXb+gVlDhXI1hoazd4cvvVzDzB8Tuusn8d06I
H5NTcw2dk+naX0BBZySibUrnQteJhy1QLd//RqT0tQyKXQJRhOh5vRQR2y1bi5Hp
t57n3N7YitVZaUCNJcY=
-----END CERTIFICATE-----
